target datalayout = "e-m:e-p270:32:32-p271:32:32-p272:64:64-i64:64-i128:128-f80:128-n8:16:32:64-S128"
target triple = "x86_64-pc-linux-gnu"

%struct.SurfaceDataRasInfo = type { %struct.SurfaceDataBounds, ptr, i32, i32, i32, i32, ptr, ptr, ptr, ptr, ptr, ptr, i32, %union.anon.0 }
%struct.SurfaceDataBounds = type { i32, i32, i32, i32 }
%union.anon.0 = type { ptr, [56 x i8] }

; Function Attrs: nounwind uwtable
define hidden void @ByteIndexedToUshort555RgbxConvert(ptr noundef %0, ptr noundef %1, i32 noundef %2, i32 noundef %3, ptr noundef %4, ptr noundef %5, ptr noundef %6, ptr noundef %7) #1 {
  %9 = alloca ptr, align 8
  %10 = alloca ptr, align 8
  %11 = alloca i32, align 4
  %12 = alloca i32, align 4
  %13 = alloca ptr, align 8
  %14 = alloca ptr, align 8
  %15 = alloca ptr, align 8
  %16 = alloca ptr, align 8
  %17 = alloca [256 x i16], align 16
  %18 = alloca ptr, align 8
  %19 = alloca i32, align 4
  %20 = alloca ptr, align 8
  %21 = alloca i32, align 4
  %22 = alloca i32, align 4
  %23 = alloca ptr, align 8
  %24 = alloca ptr, align 8
  %25 = alloca i32, align 4
  %26 = alloca i32, align 4
  %27 = alloca i32, align 4
  store ptr %0, ptr %9, align 8
  store ptr %1, ptr %10, align 8
  store i32 %2, ptr %11, align 4
  store i32 %3, ptr %12, align 4
  store ptr %4, ptr %13, align 8
  store ptr %5, ptr %14, align 8
  store ptr %6, ptr %15, align 8
  store ptr %7, ptr %16, align 8
  br label %28

28:                                               ; preds = %8
  %29 = load ptr, ptr %13, align 8
  %30 = getelementptr inbounds %struct.SurfaceDataRasInfo, ptr %29, i32 0, i32 6
  %31 = load ptr, ptr %30, align 8
  store ptr %31, ptr %18, align 8
  %32 = load ptr, ptr %13, align 8
  %33 = getelementptr inbounds %struct.SurfaceDataRasInfo, ptr %32, i32 0, i32 5
  %34 = load i32, ptr %33, align 4
  store i32 %34, ptr %19, align 4
  %35 = load i32, ptr %19, align 4
  %36 = icmp uge i32 %35, 256
  br i1 %36, label %37, label %38

37:                                               ; preds = %28
  store i32 256, ptr %19, align 4
  br label %51

38:                                               ; preds = %28
  %39 = load i32, ptr %19, align 4
  %40 = zext i32 %39 to i64
  %41 = getelementptr inbounds [256 x i16], ptr %17, i64 0, i64 %40
  store ptr %41, ptr %20, align 8
  br label %42

42:                                               ; preds = %45, %38
  %43 = load ptr, ptr %20, align 8
  %44 = getelementptr inbounds i16, ptr %43, i64 0
  store i16 0, ptr %44, align 2
  br label %45

45:                                               ; preds = %42
  %46 = load ptr, ptr %20, align 8
  %47 = getelementptr inbounds i16, ptr %46, i32 1
  store ptr %47, ptr %20, align 8
  %48 = getelementptr inbounds [256 x i16], ptr %17, i64 0, i64 256
  %49 = icmp ult ptr %47, %48
  br i1 %49, label %42, label %50, !llvm.loop !15

50:                                               ; preds = %45
  br label %51

51:                                               ; preds = %50, %37
  br label %52

52:                                               ; preds = %51
  store i32 0, ptr %21, align 4
  br label %53

53:                                               ; preds = %76, %52
  br label %54

54:                                               ; preds = %53
  %55 = load ptr, ptr %18, align 8
  %56 = load i32, ptr %21, align 4
  %57 = zext i32 %56 to i64
  %58 = getelementptr inbounds i32, ptr %55, i64 %57
  %59 = load i32, ptr %58, align 4
  store i32 %59, ptr %22, align 4
  %60 = load i32, ptr %22, align 4
  %61 = ashr i32 %60, 8
  %62 = and i32 %61, 63488
  %63 = load i32, ptr %22, align 4
  %64 = ashr i32 %63, 5
  %65 = and i32 %64, 1984
  %66 = or i32 %62, %65
  %67 = load i32, ptr %22, align 4
  %68 = ashr i32 %67, 2
  %69 = and i32 %68, 62
  %70 = or i32 %66, %69
  %71 = trunc i32 %70 to i16
  %72 = load i32, ptr %21, align 4
  %73 = zext i32 %72 to i64
  %74 = getelementptr inbounds [256 x i16], ptr %17, i64 0, i64 %73
  store i16 %71, ptr %74, align 2
  br label %75

75:                                               ; preds = %54
  br label %76

76:                                               ; preds = %75
  %77 = load i32, ptr %21, align 4
  %78 = add i32 %77, 1
  store i32 %78, ptr %21, align 4
  %79 = load i32, ptr %19, align 4
  %80 = icmp ult i32 %78, %79
  br i1 %80, label %53, label %81, !llvm.loop !16

81:                                               ; preds = %76
  br label %82

82:                                               ; preds = %81
  br label %83

83:                                               ; preds = %82
  br label %84

84:                                               ; preds = %83
  %85 = load ptr, ptr %9, align 8
  store ptr %85, ptr %23, align 8
  %86 = load ptr, ptr %10, align 8
  store ptr %86, ptr %24, align 8
  %87 = load ptr, ptr %13, align 8
  %88 = getelementptr inbounds %struct.SurfaceDataRasInfo, ptr %87, i32 0, i32 4
  %89 = load i32, ptr %88, align 8
  store i32 %89, ptr %25, align 4
  %90 = load ptr, ptr %14, align 8
  %91 = getelementptr inbounds %struct.SurfaceDataRasInfo, ptr %90, i32 0, i32 4
  %92 = load i32, ptr %91, align 8
  store i32 %92, ptr %26, align 4
  %93 = load i32, ptr %11, align 4
  %94 = mul i32 %93, 1
  %95 = load i32, ptr %25, align 4
  %96 = sub i32 %95, %94
  store i32 %96, ptr %25, align 4
  %97 = load i32, ptr %11, align 4
  %98 = mul i32 %97, 2
  %99 = load i32, ptr %26, align 4
  %100 = sub i32 %99, %98
  store i32 %100, ptr %26, align 4
  br label %101

101:                                              ; preds = %137, %84
  %102 = load i32, ptr %11, align 4
  store i32 %102, ptr %27, align 4
  br label %103

103:                                              ; preds = %120, %101
  %104 = load ptr, ptr %23, align 8
  %105 = getelementptr inbounds i8, ptr %104, i64 0
  %106 = load i8, ptr %105, align 1
  %107 = zext i8 %106 to i64
  %108 = getelementptr inbounds [256 x i16], ptr %17, i64 0, i64 %107
  %109 = load i16, ptr %108, align 2
  %110 = load ptr, ptr %24, align 8
  %111 = getelementptr inbounds i16, ptr %110, i64 0
  store i16 %109, ptr %111, align 2
  %112 = load ptr, ptr %23, align 8
  %113 = ptrtoint ptr %112 to i64
  %114 = add nsw i64 %113, 1
  %115 = inttoptr i64 %114 to ptr
  store ptr %115, ptr %23, align 8
  %116 = load ptr, ptr %24, align 8
  %117 = ptrtoint ptr %116 to i64
  %118 = add nsw i64 %117, 2
  %119 = inttoptr i64 %118 to ptr
  store ptr %119, ptr %24, align 8
  br label %120

120:                                              ; preds = %103
  %121 = load i32, ptr %27, align 4
  %122 = add i32 %121, -1
  store i32 %122, ptr %27, align 4
  %123 = icmp ugt i32 %122, 0
  br i1 %123, label %103, label %124, !llvm.loop !17

124:                                              ; preds = %120
  %125 = load ptr, ptr %23, align 8
  %126 = ptrtoint ptr %125 to i64
  %127 = load i32, ptr %25, align 4
  %128 = sext i32 %127 to i64
  %129 = add nsw i64 %126, %128
  %130 = inttoptr i64 %129 to ptr
  store ptr %130, ptr %23, align 8
  %131 = load ptr, ptr %24, align 8
  %132 = ptrtoint ptr %131 to i64
  %133 = load i32, ptr %26, align 4
  %134 = sext i32 %133 to i64
  %135 = add nsw i64 %132, %134
  %136 = inttoptr i64 %135 to ptr
  store ptr %136, ptr %24, align 8
  br label %137

137:                                              ; preds = %124
  %138 = load i32, ptr %12, align 4
  %139 = add i32 %138, -1
  store i32 %139, ptr %12, align 4
  %140 = icmp ugt i32 %139, 0
  br i1 %140, label %101, label %141, !llvm.loop !18

141:                                              ; preds = %137
  br label %142

142:                                              ; preds = %141
  ret void
}