; Function Attrs: nofree norecurse nosync nounwind memory(readwrite, inaccessiblemem: none) uwtable
define hidden void @ByteIndexedToUshort555RgbxConvert(ptr noundef %0, ptr noundef %1, i32 noundef %2, i32 noundef %3, ptr nocapture noundef readonly %4, ptr nocapture noundef readonly %5, ptr nocapture readnone %6, ptr nocapture readnone %7) #1 {
  %9 = alloca [256 x i16], align 16
  %10 = getelementptr inbounds i8, ptr %4, i64 40
  %11 = load ptr, ptr %10, align 8
  %12 = getelementptr inbounds i8, ptr %4, i64 36
  %13 = load i32, ptr %12, align 4
  %14 = icmp ugt i32 %13, 255
  br i1 %14, label %.loopexit, label %.loopexit.loopexit

.loopexit.loopexit:                               ; preds = %8
  %15 = shl nuw nsw i32 %13, 1
  %.idx = zext nneg i32 %15 to i64
  %scevgep = getelementptr i8, ptr %9, i64 %.idx
  %16 = sub nuw nsw i64 512, %.idx
  call void @llvm.memset.p0.i64(ptr align 2 %scevgep, i8 0, i64 %16, i1 false)
  br label %.loopexit

.loopexit:                                        ; preds = %.loopexit.loopexit, %8
  %.038 = phi i32 [ 256, %8 ], [ %13, %.loopexit.loopexit ]
  %umax = tail call i32 @llvm.umax.i32(i32 %.038, i32 1)
  %wide.trip.count = zext nneg i32 %umax to i64
  br label %17

17:                                               ; preds = %17, %.loopexit
  %indvars.iv = phi i64 [ %indvars.iv.next, %17 ], [ 0, %.loopexit ]
  %18 = getelementptr inbounds i32, ptr %11, i64 %indvars.iv
  %19 = load i32, ptr %18, align 4
  %20 = lshr i32 %19, 8
  %21 = and i32 %20, 63488
  %22 = lshr i32 %19, 5
  %23 = and i32 %22, 1984
  %24 = or disjoint i32 %21, %23
  %25 = lshr i32 %19, 2
  %26 = and i32 %25, 62
  %27 = or disjoint i32 %24, %26
  %28 = trunc nuw i32 %27 to i16
  %29 = getelementptr inbounds [256 x i16], ptr %9, i64 0, i64 %indvars.iv
  store i16 %28, ptr %29, align 2
  %indvars.iv.next = add nuw nsw i64 %indvars.iv, 1
  %exitcond.not = icmp eq i64 %indvars.iv.next, %wide.trip.count
  br i1 %exitcond.not, label %30, label %17, !llvm.loop !15

30:                                               ; preds = %17
  %31 = getelementptr inbounds i8, ptr %4, i64 32
  %32 = load i32, ptr %31, align 8
  %33 = getelementptr inbounds i8, ptr %5, i64 32
  %34 = load i32, ptr %33, align 8
  %35 = sub i32 %32, %2
  %36 = shl i32 %2, 1
  %37 = sub i32 %34, %36
  %38 = sext i32 %35 to i64
  %39 = sext i32 %37 to i64
  br label %40

40:                                               ; preds = %53, %30
  %.035 = phi i32 [ %3, %30 ], [ %58, %53 ]
  %.033 = phi ptr [ %0, %30 ], [ %55, %53 ]
  %.032 = phi ptr [ %1, %30 ], [ %57, %53 ]
  br label %41

41:                                               ; preds = %41, %40
  %.134 = phi ptr [ %.033, %40 ], [ %48, %41 ]
  %.1 = phi ptr [ %.032, %40 ], [ %51, %41 ]
  %.0 = phi i32 [ %2, %40 ], [ %52, %41 ]
  %42 = load i8, ptr %.134, align 1
  %43 = zext i8 %42 to i64
  %44 = getelementptr inbounds [256 x i16], ptr %9, i64 0, i64 %43
  %45 = load i16, ptr %44, align 2
  store i16 %45, ptr %.1, align 2
  %46 = ptrtoint ptr %.134 to i64
  %47 = add nsw i64 %46, 1
  %48 = inttoptr i64 %47 to ptr
  %49 = ptrtoint ptr %.1 to i64
  %50 = add nsw i64 %49, 2
  %51 = inttoptr i64 %50 to ptr
  %52 = add i32 %.0, -1
  %.not = icmp eq i32 %52, 0
  br i1 %.not, label %53, label %41, !llvm.loop !16

53:                                               ; preds = %41
  %54 = add nsw i64 %47, %38
  %55 = inttoptr i64 %54 to ptr
  %56 = add nsw i64 %50, %39
  %57 = inttoptr i64 %56 to ptr
  %58 = add i32 %.035, -1
  %.not42 = icmp eq i32 %58, 0
  br i1 %.not42, label %59, label %40, !llvm.loop !17

59:                                               ; preds = %53
  ret void
}